; Function Attrs: nounwind uwtable
define range(i32 0, 2) i32 @test_ptr_null(ptr noundef %0, i32 noundef %1, ptr noundef %2, ptr noundef %3) local_unnamed_addr #0 {
  %5 = icmp eq ptr %3, null
  br i1 %5, label %7, label %6

6:                                                ; preds = %4
  tail call void (ptr, ptr, i32, ptr, ptr, ptr, ptr, ptr, ...) @test_fail_message(ptr poison, ptr noundef %0, i32 noundef %1, ptr noundef nonnull @.str.38, ptr noundef %2, ptr noundef nonnull @.str.39, ptr noundef nonnull @.str.12, ptr noundef nonnull @.str.40, ptr noundef nonnull %3)
  br label %7

7:                                                ; preds = %4, %6
  %.0 = phi i32 [ 0, %6 ], [ 1, %4 ]
  ret i32 %.0
}